target datalayout = "e-m:e-p270:32:32-p271:32:32-p272:64:64-i64:64-i128:128-f80:128-n8:16:32:64-S128"
target triple = "x86_64-pc-linux-gnu"

; Function Attrs: mustprogress nounwind uwtable
define void @_Z8rotate_xPA3_fiS0_(ptr noundef %0, i32 noundef %1, ptr noundef %2) #5 {
  %4 = alloca ptr, align 8
  %5 = alloca i32, align 4
  %6 = alloca ptr, align 8
  %7 = alloca i32, align 4
  %8 = alloca i32, align 4
  %9 = alloca i32, align 4
  %10 = alloca [3 x float], align 4
  store ptr %0, ptr %4, align 8, !tbaa !68
  store i32 %1, ptr %5, align 4, !tbaa !9
  store ptr %2, ptr %6, align 8, !tbaa !68
  call void @llvm.lifetime.start.p0(i64 4, ptr %7) #10
  call void @llvm.lifetime.start.p0(i64 4, ptr %8) #10
  call void @llvm.lifetime.start.p0(i64 4, ptr %9) #10
  call void @llvm.lifetime.start.p0(i64 12, ptr %10) #10
  store i32 0, ptr %7, align 4, !tbaa !9
  br label %11

11:                                               ; preds = %79, %3
  %12 = load i32, ptr %7, align 4, !tbaa !9
  %13 = load i32, ptr %5, align 4, !tbaa !9
  %14 = icmp slt i32 %12, %13
  br i1 %14, label %15, label %82

15:                                               ; preds = %11
  store i32 0, ptr %8, align 4, !tbaa !9
  br label %16

16:                                               ; preds = %31, %15
  %17 = load i32, ptr %8, align 4, !tbaa !9
  %18 = icmp slt i32 %17, 3
  br i1 %18, label %19, label %34

19:                                               ; preds = %16
  %20 = load ptr, ptr %4, align 8, !tbaa !68
  %21 = load i32, ptr %7, align 4, !tbaa !9
  %22 = sext i32 %21 to i64
  %23 = getelementptr inbounds [3 x float], ptr %20, i64 %22
  %24 = load i32, ptr %8, align 4, !tbaa !9
  %25 = sext i32 %24 to i64
  %26 = getelementptr inbounds [3 x float], ptr %23, i64 0, i64 %25
  %27 = load float, ptr %26, align 4, !tbaa !92
  %28 = load i32, ptr %8, align 4, !tbaa !9
  %29 = sext i32 %28 to i64
  %30 = getelementptr inbounds [3 x float], ptr %10, i64 0, i64 %29
  store float %27, ptr %30, align 4, !tbaa !92
  br label %31

31:                                               ; preds = %19
  %32 = load i32, ptr %8, align 4, !tbaa !9
  %33 = add nsw i32 %32, 1
  store i32 %33, ptr %8, align 4, !tbaa !9
  br label %16, !llvm.loop !112

34:                                               ; preds = %16
  store i32 0, ptr %8, align 4, !tbaa !9
  br label %35

35:                                               ; preds = %75, %34
  %36 = load i32, ptr %8, align 4, !tbaa !9
  %37 = icmp slt i32 %36, 3
  br i1 %37, label %38, label %78

38:                                               ; preds = %35
  %39 = load ptr, ptr %4, align 8, !tbaa !68
  %40 = load i32, ptr %7, align 4, !tbaa !9
  %41 = sext i32 %40 to i64
  %42 = getelementptr inbounds [3 x float], ptr %39, i64 %41
  %43 = load i32, ptr %8, align 4, !tbaa !9
  %44 = sext i32 %43 to i64
  %45 = getelementptr inbounds [3 x float], ptr %42, i64 0, i64 %44
  store float 0.000000e+00, ptr %45, align 4, !tbaa !92
  store i32 0, ptr %9, align 4, !tbaa !9
  br label %46

46:                                               ; preds = %71, %38
  %47 = load i32, ptr %9, align 4, !tbaa !9
  %48 = icmp slt i32 %47, 3
  br i1 %48, label %49, label %74

49:                                               ; preds = %46
  %50 = load ptr, ptr %6, align 8, !tbaa !68
  %51 = load i32, ptr %9, align 4, !tbaa !9
  %52 = sext i32 %51 to i64
  %53 = getelementptr inbounds [3 x float], ptr %50, i64 %52
  %54 = load i32, ptr %8, align 4, !tbaa !9
  %55 = sext i32 %54 to i64
  %56 = getelementptr inbounds [3 x float], ptr %53, i64 0, i64 %55
  %57 = load float, ptr %56, align 4, !tbaa !92
  %58 = load i32, ptr %9, align 4, !tbaa !9
  %59 = sext i32 %58 to i64
  %60 = getelementptr inbounds [3 x float], ptr %10, i64 0, i64 %59
  %61 = load float, ptr %60, align 4, !tbaa !92
  %62 = load ptr, ptr %4, align 8, !tbaa !68
  %63 = load i32, ptr %7, align 4, !tbaa !9
  %64 = sext i32 %63 to i64
  %65 = getelementptr inbounds [3 x float], ptr %62, i64 %64
  %66 = load i32, ptr %8, align 4, !tbaa !9
  %67 = sext i32 %66 to i64
  %68 = getelementptr inbounds [3 x float], ptr %65, i64 0, i64 %67
  %69 = load float, ptr %68, align 4, !tbaa !92
  %70 = call float @llvm.fmuladd.f32(float %57, float %61, float %69)
  store float %70, ptr %68, align 4, !tbaa !92
  br label %71

71:                                               ; preds = %49
  %72 = load i32, ptr %9, align 4, !tbaa !9
  %73 = add nsw i32 %72, 1
  store i32 %73, ptr %9, align 4, !tbaa !9
  br label %46, !llvm.loop !113

74:                                               ; preds = %46
  br label %75

75:                                               ; preds = %74
  %76 = load i32, ptr %8, align 4, !tbaa !9
  %77 = add nsw i32 %76, 1
  store i32 %77, ptr %8, align 4, !tbaa !9
  br label %35, !llvm.loop !114

78:                                               ; preds = %35
  br label %79

79:                                               ; preds = %78
  %80 = load i32, ptr %7, align 4, !tbaa !9
  %81 = add nsw i32 %80, 1
  store i32 %81, ptr %7, align 4, !tbaa !9
  br label %11, !llvm.loop !115

82:                                               ; preds = %11
  call void @llvm.lifetime.end.p0(i64 12, ptr %10) #10
  call void @llvm.lifetime.end.p0(i64 4, ptr %9) #10
  call void @llvm.lifetime.end.p0(i64 4, ptr %8) #10
  call void @llvm.lifetime.end.p0(i64 4, ptr %7) #10
  ret void
}