; Function Attrs: mustprogress nofree norecurse nosync nounwind memory(argmem: readwrite) uwtable
define void @_Z8rotate_xPA3_fiS0_(ptr noundef captures(none) %0, i32 noundef %1, ptr noundef readonly captures(none) %2) local_unnamed_addr #5 {
  %4 = alloca [3 x float], align 4
  call void @llvm.lifetime.start.p0(i64 12, ptr nonnull %4) #10
  %5 = icmp sgt i32 %1, 0
  br i1 %5, label %.preheader24.preheader, label %._crit_edge

.preheader24.preheader:                           ; preds = %3
  %wide.trip.count = zext nneg i32 %1 to i64
  br label %.preheader24

.preheader24:                                     ; preds = %.preheader24.preheader, %17
  %indvar = phi i64 [ 0, %.preheader24.preheader ], [ %indvar.next, %17 ]
  %6 = mul nuw nsw i64 %indvar, 12
  %scevgep = getelementptr nuw i8, ptr %0, i64 %6
  call void @llvm.memcpy.p0.p0.i64(ptr noundef nonnull align 4 dereferenceable(12) %4, ptr noundef nonnull align 4 dereferenceable(12) %scevgep, i64 12, i1 false), !tbaa !37
  br label %7

7:                                                ; preds = %.preheader24, %16
  %indvars.iv32 = phi i64 [ 0, %.preheader24 ], [ %indvars.iv.next33, %16 ]
  %8 = getelementptr inbounds nuw [3 x float], ptr %0, i64 %indvar, i64 %indvars.iv32
  store float 0.000000e+00, ptr %8, align 4, !tbaa !37
  br label %9

9:                                                ; preds = %7, %9
  %indvars.iv = phi i64 [ 0, %7 ], [ %indvars.iv.next, %9 ]
  %10 = phi float [ 0.000000e+00, %7 ], [ %15, %9 ]
  %11 = getelementptr inbounds nuw [3 x float], ptr %2, i64 %indvars.iv, i64 %indvars.iv32
  %12 = load float, ptr %11, align 4, !tbaa !37
  %13 = getelementptr inbounds nuw [3 x float], ptr %4, i64 0, i64 %indvars.iv
  %14 = load float, ptr %13, align 4, !tbaa !37
  %15 = tail call float @llvm.fmuladd.f32(float %12, float %14, float %10)
  store float %15, ptr %8, align 4, !tbaa !37
  %indvars.iv.next = add nuw nsw i64 %indvars.iv, 1
  %exitcond.not = icmp eq i64 %indvars.iv.next, 3
  br i1 %exitcond.not, label %16, label %9, !llvm.loop !73

16:                                               ; preds = %9
  %indvars.iv.next33 = add nuw nsw i64 %indvars.iv32, 1
  %exitcond35.not = icmp eq i64 %indvars.iv.next33, 3
  br i1 %exitcond35.not, label %17, label %7, !llvm.loop !74

17:                                               ; preds = %16
  %indvar.next = add nuw nsw i64 %indvar, 1
  %exitcond37.not = icmp eq i64 %indvar.next, %wide.trip.count
  br i1 %exitcond37.not, label %._crit_edge, label %.preheader24, !llvm.loop !75

._crit_edge:                                      ; preds = %17, %3
  call void @llvm.lifetime.end.p0(i64 12, ptr nonnull %4) #10
  ret void
}